target datalayout = "e-m:e-p270:32:32-p271:32:32-p272:64:64-i64:64-i128:128-f80:128-n8:16:32:64-S128"
target triple = "x86_64-pc-linux-gnu"

%struct.AVFormatContext = type { ptr, ptr, ptr, ptr, ptr, i32, i32, ptr, i32, ptr, i32, ptr, ptr, i64, i64, i64, i32, i32, i32, i64, i64, ptr, i32, i32, ptr, i32, i32, i32, i32, ptr, i64, i32, i32, %struct.AVIOInterruptCB, i32, i32, i32, i32, i64, i32, i32, i32, i32, i32, i32, i32, i32, i32, i32, i32, i32, i64, i32, i32, i32, i32, i32, ptr, ptr, ptr, ptr, i32, ptr, ptr, ptr, ptr, i32, ptr, ptr, i64, ptr, ptr, ptr, i64 }
%struct.AVIOInterruptCB = type { ptr, ptr }
%struct.HDSContext = type { ptr, i32, i32, i32, i32, ptr, i32 }
%struct.OutputStream = type { i32, i32, ptr, i32, [32768 x i8], [1024 x i8], i64, i64, ptr, i32, i32, i32, i32, ptr, i32, i32, ptr, i32, [2 x ptr], [2 x i32], i32 }
%struct.AVStream = type { ptr, i32, i32, ptr, ptr, %struct.AVRational, i64, i64, i64, i32, i32, %struct.AVRational, ptr, %struct.AVRational, %struct.AVPacket, i32, %struct.AVRational, i32 }
%struct.AVPacket = type { ptr, i64, i64, ptr, i32, i32, i32, ptr, i32, i64, i64, ptr, ptr, %struct.AVRational }
%struct.AVRational = type { i32, i32 }
%struct.AVCodecParameters = type { i32, i32, i32, ptr, i32, ptr, i32, i32, i64, i32, i32, i32, i32, i32, i32, %struct.AVRational, %struct.AVRational, i32, i32, i32, i32, i32, i32, i32, %struct.AVChannelLayout, i32, i32, i32, i32, i32, i32 }
%struct.AVChannelLayout = type { i32, i32, %union.anon.0, ptr }
%union.anon.0 = type { i64 }
%struct.FFStream = type { %struct.AVStream, ptr, i32, ptr, i32, ptr, i32, %struct.anon, i32, i32, %struct.FFFrac, ptr, ptr, i32, i32, i64, i64, i32, i32, i32, i64, i64, i64, i32, i64, i64, i64, i32, i32, [17 x i64], [17 x i8], [17 x i64], i64, i8, i8, %struct.AVRational, %struct.AVProbeData, ptr, i64, i32, i32, i32, ptr, i32, i32, i64, i64, ptr, %struct.AVRational }
%struct.anon = type { ptr, i32 }
%struct.FFFrac = type { i64, i64, i64 }
%struct.AVProbeData = type { ptr, ptr, i32, ptr }

; Function Attrs: alwaysinline nounwind uwtable
define internal ptr @ffstream(ptr noundef %0) #7 {
  %2 = alloca ptr, align 8
  store ptr %0, ptr %2, align 8, !tbaa !38
  %3 = load ptr, ptr %2, align 8, !tbaa !38
  ret ptr %3
}

; Function Attrs: nounwind uwtable
define internal i32 @hds_write_packet(ptr noundef %0, ptr noundef %1) #0 {
  %3 = alloca i32, align 4
  %4 = alloca ptr, align 8
  %5 = alloca ptr, align 8
  %6 = alloca ptr, align 8
  %7 = alloca ptr, align 8
  %8 = alloca ptr, align 8
  %9 = alloca ptr, align 8
  %10 = alloca i64, align 8
  %11 = alloca i32, align 4
  %12 = alloca %struct.AVRational, align 4
  %13 = alloca i32, align 4
  store ptr %0, ptr %4, align 8, !tbaa !4
  store ptr %1, ptr %5, align 8, !tbaa !73
  call void @llvm.lifetime.start.p0(i64 8, ptr %6) #9
  %14 = load ptr, ptr %4, align 8, !tbaa !4
  %15 = getelementptr inbounds nuw %struct.AVFormatContext, ptr %14, i32 0, i32 3
  %16 = load ptr, ptr %15, align 8, !tbaa !9
  store ptr %16, ptr %6, align 8, !tbaa !26
  call void @llvm.lifetime.start.p0(i64 8, ptr %7) #9
  %17 = load ptr, ptr %4, align 8, !tbaa !4
  %18 = getelementptr inbounds nuw %struct.AVFormatContext, ptr %17, i32 0, i32 7
  %19 = load ptr, ptr %18, align 8, !tbaa !37
  %20 = load ptr, ptr %5, align 8, !tbaa !73
  %21 = getelementptr inbounds nuw %struct.AVPacket, ptr %20, i32 0, i32 5
  %22 = load i32, ptr %21, align 4, !tbaa !75
  %23 = sext i32 %22 to i64
  %24 = getelementptr inbounds ptr, ptr %19, i64 %23
  %25 = load ptr, ptr %24, align 8, !tbaa !38
  store ptr %25, ptr %7, align 8, !tbaa !38
  call void @llvm.lifetime.start.p0(i64 8, ptr %8) #9
  %26 = load ptr, ptr %7, align 8, !tbaa !38
  %27 = call ptr @ffstream(ptr noundef %26)
  store ptr %27, ptr %8, align 8, !tbaa !76
  call void @llvm.lifetime.start.p0(i64 8, ptr %9) #9
  %28 = load ptr, ptr %6, align 8, !tbaa !26
  %29 = getelementptr inbounds nuw %struct.HDSContext, ptr %28, i32 0, i32 5
  %30 = load ptr, ptr %29, align 8, !tbaa !32
  %31 = load ptr, ptr %4, align 8, !tbaa !4
  %32 = getelementptr inbounds nuw %struct.AVFormatContext, ptr %31, i32 0, i32 7
  %33 = load ptr, ptr %32, align 8, !tbaa !37
  %34 = load ptr, ptr %5, align 8, !tbaa !73
  %35 = getelementptr inbounds nuw %struct.AVPacket, ptr %34, i32 0, i32 5
  %36 = load i32, ptr %35, align 4, !tbaa !75
  %37 = sext i32 %36 to i64
  %38 = getelementptr inbounds ptr, ptr %33, i64 %37
  %39 = load ptr, ptr %38, align 8, !tbaa !38
  %40 = getelementptr inbounds nuw %struct.AVStream, ptr %39, i32 0, i32 2
  %41 = load i32, ptr %40, align 4, !tbaa !63
  %42 = sext i32 %41 to i64
  %43 = getelementptr inbounds %struct.OutputStream, ptr %30, i64 %42
  store ptr %43, ptr %9, align 8, !tbaa !36
  call void @llvm.lifetime.start.p0(i64 8, ptr %10) #9
  %44 = load ptr, ptr %9, align 8, !tbaa !36
  %45 = getelementptr inbounds nuw %struct.OutputStream, ptr %44, i32 0, i32 12
  %46 = load i32, ptr %45, align 4, !tbaa !71
  %47 = sext i32 %46 to i64
  %48 = load ptr, ptr %6, align 8, !tbaa !26
  %49 = getelementptr inbounds nuw %struct.HDSContext, ptr %48, i32 0, i32 3
  %50 = load i32, ptr %49, align 8, !tbaa !70
  %51 = sext i32 %50 to i64
  %52 = mul nsw i64 %47, %51
  store i64 %52, ptr %10, align 8, !tbaa !78
  call void @llvm.lifetime.start.p0(i64 4, ptr %11) #9
  %53 = load ptr, ptr %8, align 8, !tbaa !76
  %54 = getelementptr inbounds nuw %struct.FFStream, ptr %53, i32 0, i32 45
  %55 = load i64, ptr %54, align 8, !tbaa !79
  %56 = icmp eq i64 %55, -9223372036854775808
  br i1 %56, label %57, label %63

57:                                               ; preds = %2
  %58 = load ptr, ptr %5, align 8, !tbaa !73
  %59 = getelementptr inbounds nuw %struct.AVPacket, ptr %58, i32 0, i32 2
  %60 = load i64, ptr %59, align 8, !tbaa !91
  %61 = load ptr, ptr %8, align 8, !tbaa !76
  %62 = getelementptr inbounds nuw %struct.FFStream, ptr %61, i32 0, i32 45
  store i64 %60, ptr %62, align 8, !tbaa !79
  br label %63

63:                                               ; preds = %57, %2
  %64 = load ptr, ptr %9, align 8, !tbaa !36
  %65 = getelementptr inbounds nuw %struct.OutputStream, ptr %64, i32 0, i32 15
  %66 = load i32, ptr %65, align 4, !tbaa !51
  %67 = icmp ne i32 %66, 0
  br i1 %67, label %68, label %75

68:                                               ; preds = %63
  %69 = load ptr, ptr %7, align 8, !tbaa !38
  %70 = getelementptr inbounds nuw %struct.AVStream, ptr %69, i32 0, i32 3
  %71 = load ptr, ptr %70, align 8, !tbaa !40
  %72 = getelementptr inbounds nuw %struct.AVCodecParameters, ptr %71, i32 0, i32 0
  %73 = load i32, ptr %72, align 8, !tbaa !50
  %74 = icmp eq i32 %73, 0
  br i1 %74, label %75, label %114

75:                                               ; preds = %68, %63
  %76 = load ptr, ptr %5, align 8, !tbaa !73
  %77 = getelementptr inbounds nuw %struct.AVPacket, ptr %76, i32 0, i32 2
  %78 = load i64, ptr %77, align 8, !tbaa !91
  %79 = load ptr, ptr %8, align 8, !tbaa !76
  %80 = getelementptr inbounds nuw %struct.FFStream, ptr %79, i32 0, i32 45
  %81 = load i64, ptr %80, align 8, !tbaa !79
  %82 = sub nsw i64 %78, %81
  %83 = load ptr, ptr %7, align 8, !tbaa !38
  %84 = getelementptr inbounds nuw %struct.AVStream, ptr %83, i32 0, i32 5
  %85 = load i64, ptr %10, align 8, !tbaa !78
  %86 = getelementptr inbounds nuw %struct.AVRational, ptr %12, i32 0, i32 0
  store i32 1, ptr %86, align 4, !tbaa !92
  %87 = getelementptr inbounds nuw %struct.AVRational, ptr %12, i32 0, i32 1
  store i32 1000000, ptr %87, align 4, !tbaa !93
  %88 = load i64, ptr %84, align 8
  %89 = load i64, ptr %12, align 4
  %90 = call i32 @av_compare_ts(i64 noundef %82, i64 %88, i64 noundef %85, i64 %89)
  %91 = icmp sge i32 %90, 0
  br i1 %91, label %92, label %114

92:                                               ; preds = %75
  %93 = load ptr, ptr %5, align 8, !tbaa !73
  %94 = getelementptr inbounds nuw %struct.AVPacket, ptr %93, i32 0, i32 6
  %95 = load i32, ptr %94, align 8, !tbaa !94
  %96 = and i32 %95, 1
  %97 = icmp ne i32 %96, 0
  br i1 %97, label %98, label %114

98:                                               ; preds = %92
  %99 = load ptr, ptr %9, align 8, !tbaa !36
  %100 = getelementptr inbounds nuw %struct.OutputStream, ptr %99, i32 0, i32 9
  %101 = load i32, ptr %100, align 8, !tbaa !95
  %102 = icmp ne i32 %101, 0
  br i1 %102, label %103, label %114

103:                                              ; preds = %98
  %104 = load ptr, ptr %4, align 8, !tbaa !4
  %105 = load ptr, ptr %9, align 8, !tbaa !36
  %106 = load ptr, ptr %5, align 8, !tbaa !73
  %107 = getelementptr inbounds nuw %struct.AVPacket, ptr %106, i32 0, i32 2
  %108 = load i64, ptr %107, align 8, !tbaa !91
  %109 = call i32 @hds_flush(ptr noundef %104, ptr noundef %105, i32 noundef 0, i64 noundef %108)
  store i32 %109, ptr %11, align 4, !tbaa !28
  %110 = icmp slt i32 %109, 0
  br i1 %110, label %111, label %113

111:                                              ; preds = %103
  %112 = load i32, ptr %11, align 4, !tbaa !28
  store i32 %112, ptr %3, align 4
  store i32 1, ptr %13, align 4
  br label %148

113:                                              ; preds = %103
  br label %114

114:                                              ; preds = %113, %98, %92, %75, %68
  %115 = load ptr, ptr %9, align 8, !tbaa !36
  %116 = getelementptr inbounds nuw %struct.OutputStream, ptr %115, i32 0, i32 9
  %117 = load i32, ptr %116, align 8, !tbaa !95
  %118 = icmp ne i32 %117, 0
  br i1 %118, label %125, label %119

119:                                              ; preds = %114
  %120 = load ptr, ptr %5, align 8, !tbaa !73
  %121 = getelementptr inbounds nuw %struct.AVPacket, ptr %120, i32 0, i32 2
  %122 = load i64, ptr %121, align 8, !tbaa !91
  %123 = load ptr, ptr %9, align 8, !tbaa !36
  %124 = getelementptr inbounds nuw %struct.OutputStream, ptr %123, i32 0, i32 6
  store i64 %122, ptr %124, align 8, !tbaa !96
  br label %125

125:                                              ; preds = %119, %114
  %126 = load ptr, ptr %5, align 8, !tbaa !73
  %127 = getelementptr inbounds nuw %struct.AVPacket, ptr %126, i32 0, i32 2
  %128 = load i64, ptr %127, align 8, !tbaa !91
  %129 = load ptr, ptr %9, align 8, !tbaa !36
  %130 = getelementptr inbounds nuw %struct.OutputStream, ptr %129, i32 0, i32 7
  store i64 %128, ptr %130, align 8, !tbaa !97
  %131 = load ptr, ptr %9, align 8, !tbaa !36
  %132 = getelementptr inbounds nuw %struct.OutputStream, ptr %131, i32 0, i32 9
  %133 = load i32, ptr %132, align 8, !tbaa !95
  %134 = add nsw i32 %133, 1
  store i32 %134, ptr %132, align 8, !tbaa !95
  %135 = load ptr, ptr %9, align 8, !tbaa !36
  %136 = getelementptr inbounds nuw %struct.OutputStream, ptr %135, i32 0, i32 2
  %137 = load ptr, ptr %136, align 8, !tbaa !56
  %138 = load ptr, ptr %5, align 8, !tbaa !73
  %139 = getelementptr inbounds nuw %struct.AVPacket, ptr %138, i32 0, i32 5
  %140 = load i32, ptr %139, align 4, !tbaa !75
  %141 = load ptr, ptr %9, align 8, !tbaa !36
  %142 = getelementptr inbounds nuw %struct.OutputStream, ptr %141, i32 0, i32 1
  %143 = load i32, ptr %142, align 4, !tbaa !57
  %144 = sub nsw i32 %140, %143
  %145 = load ptr, ptr %5, align 8, !tbaa !73
  %146 = load ptr, ptr %4, align 8, !tbaa !4
  %147 = call i32 @ff_write_chained(ptr noundef %137, i32 noundef %144, ptr noundef %145, ptr noundef %146, i32 noundef 0)
  store i32 %147, ptr %3, align 4
  store i32 1, ptr %13, align 4
  br label %148

148:                                              ; preds = %125, %111
  call void @llvm.lifetime.end.p0(i64 4, ptr %11) #9
  call void @llvm.lifetime.end.p0(i64 8, ptr %10) #9
  call void @llvm.lifetime.end.p0(i64 8, ptr %9) #9
  call void @llvm.lifetime.end.p0(i64 8, ptr %8) #9
  call void @llvm.lifetime.end.p0(i64 8, ptr %7) #9
  call void @llvm.lifetime.end.p0(i64 8, ptr %6) #9
  %149 = load i32, ptr %3, align 4
  ret i32 %149
}