; Function Attrs: nounwind uwtable
define internal i32 @hds_write_packet(ptr noundef %0, ptr noundef %1) #0 {
  %3 = getelementptr inbounds nuw i8, ptr %0, i64 24
  %4 = load ptr, ptr %3, align 8, !tbaa !4
  %5 = getelementptr inbounds nuw i8, ptr %0, i64 48
  %6 = load ptr, ptr %5, align 8, !tbaa !31
  %7 = getelementptr inbounds nuw i8, ptr %1, i64 36
  %8 = load i32, ptr %7, align 4, !tbaa !73
  %9 = sext i32 %8 to i64
  %10 = getelementptr inbounds ptr, ptr %6, i64 %9
  %11 = load ptr, ptr %10, align 8, !tbaa !32
  %12 = getelementptr inbounds nuw i8, ptr %4, i64 24
  %13 = load ptr, ptr %12, align 8, !tbaa !27
  %14 = getelementptr inbounds nuw i8, ptr %11, i64 12
  %15 = load i32, ptr %14, align 4, !tbaa !58
  %16 = sext i32 %15 to i64
  %17 = getelementptr inbounds %struct.OutputStream, ptr %13, i64 %16
  %18 = getelementptr inbounds nuw i8, ptr %17, i64 33852
  %19 = load i32, ptr %18, align 4, !tbaa !71
  %20 = sext i32 %19 to i64
  %21 = getelementptr inbounds nuw i8, ptr %4, i64 16
  %22 = load i32, ptr %21, align 8, !tbaa !70
  %23 = sext i32 %22 to i64
  %24 = mul nsw i64 %23, %20
  %25 = getelementptr inbounds nuw i8, ptr %11, i64 832
  %26 = load i64, ptr %25, align 8, !tbaa !74
  %27 = icmp eq i64 %26, -9223372036854775808
  br i1 %27, label %28, label %31

28:                                               ; preds = %2
  %29 = getelementptr inbounds nuw i8, ptr %1, i64 16
  %30 = load i64, ptr %29, align 8, !tbaa !86
  store i64 %30, ptr %25, align 8, !tbaa !74
  br label %31

31:                                               ; preds = %28, %2
  %32 = phi i64 [ %30, %28 ], [ %26, %2 ]
  %33 = getelementptr inbounds nuw i8, ptr %17, i64 33868
  %34 = load i32, ptr %33, align 4, !tbaa !45
  %.not = icmp eq i32 %34, 0
  br i1 %.not, label %40, label %35

35:                                               ; preds = %31
  %36 = getelementptr inbounds nuw i8, ptr %11, i64 16
  %37 = load ptr, ptr %36, align 8, !tbaa !34
  %38 = load i32, ptr %37, align 8, !tbaa !44
  %39 = icmp eq i32 %38, 0
  br i1 %39, label %40, label %59

40:                                               ; preds = %35, %31
  %41 = getelementptr inbounds nuw i8, ptr %1, i64 16
  %42 = load i64, ptr %41, align 8, !tbaa !86
  %43 = sub nsw i64 %42, %32
  %44 = getelementptr inbounds nuw i8, ptr %11, i64 32
  %45 = load i64, ptr %44, align 8
  %46 = tail call i32 @av_compare_ts(i64 noundef %43, i64 %45, i64 noundef %24, i64 4294967296000001) #8
  %47 = icmp sgt i32 %46, -1
  br i1 %47, label %48, label %59

48:                                               ; preds = %40
  %49 = getelementptr inbounds nuw i8, ptr %1, i64 40
  %50 = load i32, ptr %49, align 8, !tbaa !87
  %51 = and i32 %50, 1
  %.not36 = icmp eq i32 %51, 0
  br i1 %.not36, label %59, label %52

52:                                               ; preds = %48
  %53 = getelementptr inbounds nuw i8, ptr %17, i64 33840
  %54 = load i32, ptr %53, align 8, !tbaa !88
  %.not37 = icmp eq i32 %54, 0
  br i1 %.not37, label %59, label %55

55:                                               ; preds = %52
  %56 = load i64, ptr %41, align 8, !tbaa !86
  %57 = tail call fastcc i32 @hds_flush(ptr noundef nonnull %0, ptr noundef nonnull %17, i32 noundef 0, i64 noundef %56)
  %58 = icmp slt i32 %57, 0
  br i1 %58, label %75, label %59

59:                                               ; preds = %55, %52, %48, %40, %35
  %60 = getelementptr inbounds nuw i8, ptr %17, i64 33840
  %61 = load i32, ptr %60, align 8, !tbaa !88
  %.not38 = icmp eq i32 %61, 0
  %62 = getelementptr inbounds nuw i8, ptr %1, i64 16
  %63 = load i64, ptr %62, align 8, !tbaa !86
  br i1 %.not38, label %64, label %._crit_edge

64:                                               ; preds = %59
  %65 = getelementptr inbounds nuw i8, ptr %17, i64 33816
  store i64 %63, ptr %65, align 8, !tbaa !89
  br label %._crit_edge

._crit_edge:                                      ; preds = %59, %64
  %66 = getelementptr inbounds nuw i8, ptr %17, i64 33824
  store i64 %63, ptr %66, align 8, !tbaa !90
  %67 = add nsw i32 %61, 1
  store i32 %67, ptr %60, align 8, !tbaa !88
  %68 = getelementptr inbounds nuw i8, ptr %17, i64 8
  %69 = load ptr, ptr %68, align 8, !tbaa !51
  %70 = load i32, ptr %7, align 4, !tbaa !73
  %71 = getelementptr inbounds nuw i8, ptr %17, i64 4
  %72 = load i32, ptr %71, align 4, !tbaa !52
  %73 = sub nsw i32 %70, %72
  %74 = tail call i32 @ff_write_chained(ptr noundef %69, i32 noundef %73, ptr noundef nonnull %1, ptr noundef nonnull %0, i32 noundef 0) #8
  br label %75

75:                                               ; preds = %55, %._crit_edge
  %.0 = phi i32 [ %74, %._crit_edge ], [ %57, %55 ]
  ret i32 %.0
}